target datalayout = "e-m:e-p270:32:32-p271:32:32-p272:64:64-i64:64-i128:128-f80:128-n8:16:32:64-S128"
target triple = "x86_64-pc-linux-gnu"

%struct.GLFWallocator = type { ptr, ptr, ptr, ptr }

@_glfwInitAllocator = internal global %struct.GLFWallocator zeroinitializer, align 8
@.str.19 = private unnamed_addr constant [30 x i8] c"Missing function in allocator\00", align 1

; Function Attrs: nounwind uwtable
define void @glfwInitAllocator(ptr noundef %0) #0 {
  %2 = alloca ptr, align 8
  store ptr %0, ptr %2, align 8, !tbaa !144
  %3 = load ptr, ptr %2, align 8, !tbaa !144
  %4 = icmp ne ptr %3, null
  br i1 %4, label %5, label %24

5:                                                ; preds = %1
  %6 = load ptr, ptr %2, align 8, !tbaa !144
  %7 = getelementptr inbounds nuw %struct.GLFWallocator, ptr %6, i32 0, i32 0
  %8 = load ptr, ptr %7, align 8, !tbaa !146
  %9 = icmp ne ptr %8, null
  br i1 %9, label %10, label %22

10:                                               ; preds = %5
  %11 = load ptr, ptr %2, align 8, !tbaa !144
  %12 = getelementptr inbounds nuw %struct.GLFWallocator, ptr %11, i32 0, i32 1
  %13 = load ptr, ptr %12, align 8, !tbaa !147
  %14 = icmp ne ptr %13, null
  br i1 %14, label %15, label %22

15:                                               ; preds = %10
  %16 = load ptr, ptr %2, align 8, !tbaa !144
  %17 = getelementptr inbounds nuw %struct.GLFWallocator, ptr %16, i32 0, i32 2
  %18 = load ptr, ptr %17, align 8, !tbaa !148
  %19 = icmp ne ptr %18, null
  br i1 %19, label %20, label %22

20:                                               ; preds = %15
  %21 = load ptr, ptr %2, align 8, !tbaa !144
  call void @llvm.memcpy.p0.p0.i64(ptr align 8 @_glfwInitAllocator, ptr align 8 %21, i64 32, i1 false), !tbaa.struct !112
  br label %23

22:                                               ; preds = %15, %10, %5
  call void (i32, ptr, ...) @_glfwInputError(i32 noundef 65540, ptr noundef @.str.19)
  br label %23

23:                                               ; preds = %22, %20
  br label %25

24:                                               ; preds = %1
  call void @llvm.memset.p0.i64(ptr align 8 @_glfwInitAllocator, i8 0, i64 32, i1 false)
  br label %25

25:                                               ; preds = %24, %23
  ret void
}