; Function Attrs: nounwind uwtable
define void @glfwInitAllocator(ptr noundef readonly captures(address_is_null) %0) local_unnamed_addr #2 {
  %.not = icmp eq ptr %0, null
  br i1 %.not, label %12, label %2

2:                                                ; preds = %1
  %3 = load ptr, ptr %0, align 8, !tbaa !138
  %.not5 = icmp eq ptr %3, null
  br i1 %.not5, label %11, label %4

4:                                                ; preds = %2
  %5 = getelementptr inbounds nuw i8, ptr %0, i64 8
  %6 = load ptr, ptr %5, align 8, !tbaa !139
  %.not6 = icmp eq ptr %6, null
  br i1 %.not6, label %11, label %7

7:                                                ; preds = %4
  %8 = getelementptr inbounds nuw i8, ptr %0, i64 16
  %9 = load ptr, ptr %8, align 8, !tbaa !140
  %.not7 = icmp eq ptr %9, null
  br i1 %.not7, label %11, label %10

10:                                               ; preds = %7
  tail call void @llvm.memcpy.p0.p0.i64(ptr noundef nonnull align 8 dereferenceable(32) @_glfwInitAllocator, ptr noundef nonnull align 8 dereferenceable(32) %0, i64 32, i1 false), !tbaa.struct !106
  br label %13

11:                                               ; preds = %7, %4, %2
  tail call void (i32, ptr, ...) @_glfwInputError(i32 noundef 65540, ptr noundef nonnull @.str.19)
  br label %13

12:                                               ; preds = %1
  tail call void @llvm.memset.p0.i64(ptr noundef nonnull align 8 dereferenceable(32) @_glfwInitAllocator, i8 0, i64 32, i1 false)
  br label %13

13:                                               ; preds = %10, %11, %12
  ret void
}